target datalayout = "e-m:e-p270:32:32-p271:32:32-p272:64:64-i64:64-i128:128-f80:128-n8:16:32:64-S128"
target triple = "x86_64-pc-linux-gnu"

@.str.53 = private unnamed_addr constant [12 x i8] c"H5G_DATASET\00", align 1
@.str.54 = private unnamed_addr constant [10 x i8] c"H5G_GROUP\00", align 1
@.str.55 = private unnamed_addr constant [9 x i8] c"H5G_TYPE\00", align 1
@.str.56 = private unnamed_addr constant [9 x i8] c"H5G_LINK\00", align 1
@.str.57 = private unnamed_addr constant [11 x i8] c"H5G_UDLINK\00", align 1
@.str.58 = private unnamed_addr constant [13 x i8] c"unknown type\00", align 1

; Function Attrs: nounwind willreturn memory(none) uwtable
define ptr @get_type(i32 noundef %0) #5 {
  %2 = alloca ptr, align 8
  %3 = alloca i32, align 4
  store i32 %0, ptr %3, align 4, !tbaa !3
  %4 = load i32, ptr %3, align 4, !tbaa !3
  switch i32 %4, label %11 [
    i32 1, label %5
    i32 0, label %6
    i32 2, label %7
    i32 3, label %8
    i32 4, label %9
    i32 -1, label %10
  ]

5:                                                ; preds = %1
  store ptr @.str.53, ptr %2, align 8
  br label %12

6:                                                ; preds = %1
  store ptr @.str.54, ptr %2, align 8
  br label %12

7:                                                ; preds = %1
  store ptr @.str.55, ptr %2, align 8
  br label %12

8:                                                ; preds = %1
  store ptr @.str.56, ptr %2, align 8
  br label %12

9:                                                ; preds = %1
  store ptr @.str.57, ptr %2, align 8
  br label %12

10:                                               ; preds = %1
  br label %11

11:                                               ; preds = %1, %10
  store ptr @.str.58, ptr %2, align 8
  br label %12

12:                                               ; preds = %11, %9, %8, %7, %6, %5
  %13 = load ptr, ptr %2, align 8
  ret ptr %13
}